target datalayout = "e-m:e-p270:32:32-p271:32:32-p272:64:64-i64:64-i128:128-f80:128-n8:16:32:64-S128"
target triple = "x86_64-pc-linux-gnu"

%struct.DdManager = type { %struct.DdNode, ptr, ptr, ptr, ptr, ptr, ptr, ptr, i32, i32, double, double, double, i32, i32, i32, i32, i32, i32, ptr, ptr, %struct.DdSubtable, i32, i32, i32, i32, i32, i32, i32, double, i32, i32, i32, ptr, i64, double, i32, ptr, ptr, ptr, ptr, ptr, ptr, ptr, i32, ptr, ptr, ptr, ptr, ptr, ptr, i32, i32, i32, double, i32, i32, i32, i32, double, double, i32, i32, i32, i32, i32, i32, i32, i32, i32, ptr, ptr, i32, i32, i32, i32, i32, i32, ptr, ptr, ptr, ptr, ptr, ptr, ptr, ptr, i32, i64, i64, i64, i32, i64, i64, double, double, double, double, double, double, i32, ptr, ptr, i64 }
%struct.DdNode = type { i32, i32, ptr, %union.anon, i64 }
%union.anon = type { %struct.DdChildren }
%struct.DdChildren = type { ptr, ptr }
%struct.DdSubtable = type { ptr, i32, i32, i32, i32, i32, i32, i32, i32, i32, i32, i32 }

; Function Attrs: nounwind uwtable
define double @Cudd_ReadUsedSlots(ptr noundef %0) #0 {
  %2 = alloca ptr, align 8
  %3 = alloca i64, align 8
  %4 = alloca i32, align 4
  %5 = alloca i32, align 4
  %6 = alloca i32, align 4
  %7 = alloca ptr, align 8
  %8 = alloca ptr, align 8
  %9 = alloca ptr, align 8
  %10 = alloca ptr, align 8
  store ptr %0, ptr %2, align 8
  store i64 0, ptr %3, align 8
  %11 = load ptr, ptr %2, align 8
  %12 = getelementptr inbounds %struct.DdManager, ptr %11, i32 0, i32 15
  %13 = load i32, ptr %12, align 8
  store i32 %13, ptr %6, align 4
  %14 = load ptr, ptr %2, align 8
  %15 = getelementptr inbounds %struct.DdManager, ptr %14, i32 0, i32 0
  store ptr %15, ptr %10, align 8
  store i32 0, ptr %4, align 4
  br label %16

16:                                               ; preds = %53, %1
  %17 = load i32, ptr %4, align 4
  %18 = load i32, ptr %6, align 4
  %19 = icmp slt i32 %17, %18
  br i1 %19, label %20, label %56

20:                                               ; preds = %16
  %21 = load ptr, ptr %2, align 8
  %22 = getelementptr inbounds %struct.DdManager, ptr %21, i32 0, i32 19
  %23 = load ptr, ptr %22, align 8
  %24 = load i32, ptr %4, align 4
  %25 = sext i32 %24 to i64
  %26 = getelementptr inbounds %struct.DdSubtable, ptr %23, i64 %25
  store ptr %26, ptr %8, align 8
  %27 = load ptr, ptr %8, align 8
  %28 = getelementptr inbounds %struct.DdSubtable, ptr %27, i32 0, i32 0
  %29 = load ptr, ptr %28, align 8
  store ptr %29, ptr %7, align 8
  store i32 0, ptr %5, align 4
  br label %30

30:                                               ; preds = %49, %20
  %31 = load i32, ptr %5, align 4
  %32 = load ptr, ptr %8, align 8
  %33 = getelementptr inbounds %struct.DdSubtable, ptr %32, i32 0, i32 2
  %34 = load i32, ptr %33, align 4
  %35 = icmp ult i32 %31, %34
  br i1 %35, label %36, label %52

36:                                               ; preds = %30
  %37 = load ptr, ptr %7, align 8
  %38 = load i32, ptr %5, align 4
  %39 = sext i32 %38 to i64
  %40 = getelementptr inbounds ptr, ptr %37, i64 %39
  %41 = load ptr, ptr %40, align 8
  store ptr %41, ptr %9, align 8
  %42 = load ptr, ptr %9, align 8
  %43 = load ptr, ptr %10, align 8
  %44 = icmp ne ptr %42, %43
  br i1 %44, label %45, label %48

45:                                               ; preds = %36
  %46 = load i64, ptr %3, align 8
  %47 = add i64 %46, 1
  store i64 %47, ptr %3, align 8
  br label %48

48:                                               ; preds = %45, %36
  br label %49

49:                                               ; preds = %48
  %50 = load i32, ptr %5, align 4
  %51 = add nsw i32 %50, 1
  store i32 %51, ptr %5, align 4
  br label %30, !llvm.loop !22

52:                                               ; preds = %30
  br label %53

53:                                               ; preds = %52
  %54 = load i32, ptr %4, align 4
  %55 = add nsw i32 %54, 1
  store i32 %55, ptr %4, align 4
  br label %16, !llvm.loop !23

56:                                               ; preds = %16
  %57 = load ptr, ptr %2, align 8
  %58 = getelementptr inbounds %struct.DdManager, ptr %57, i32 0, i32 16
  %59 = load i32, ptr %58, align 4
  store i32 %59, ptr %6, align 4
  store i32 0, ptr %4, align 4
  br label %60

60:                                               ; preds = %96, %56
  %61 = load i32, ptr %4, align 4
  %62 = load i32, ptr %6, align 4
  %63 = icmp slt i32 %61, %62
  br i1 %63, label %64, label %99

64:                                               ; preds = %60
  %65 = load ptr, ptr %2, align 8
  %66 = getelementptr inbounds %struct.DdManager, ptr %65, i32 0, i32 20
  %67 = load ptr, ptr %66, align 8
  %68 = load i32, ptr %4, align 4
  %69 = sext i32 %68 to i64
  %70 = getelementptr inbounds %struct.DdSubtable, ptr %67, i64 %69
  store ptr %70, ptr %8, align 8
  %71 = load ptr, ptr %8, align 8
  %72 = getelementptr inbounds %struct.DdSubtable, ptr %71, i32 0, i32 0
  %73 = load ptr, ptr %72, align 8
  store ptr %73, ptr %7, align 8
  store i32 0, ptr %5, align 4
  br label %74

74:                                               ; preds = %92, %64
  %75 = load i32, ptr %5, align 4
  %76 = load ptr, ptr %8, align 8
  %77 = getelementptr inbounds %struct.DdSubtable, ptr %76, i32 0, i32 2
  %78 = load i32, ptr %77, align 4
  %79 = icmp ult i32 %75, %78
  br i1 %79, label %80, label %95

80:                                               ; preds = %74
  %81 = load ptr, ptr %7, align 8
  %82 = load i32, ptr %5, align 4
  %83 = sext i32 %82 to i64
  %84 = getelementptr inbounds ptr, ptr %81, i64 %83
  %85 = load ptr, ptr %84, align 8
  store ptr %85, ptr %9, align 8
  %86 = load ptr, ptr %9, align 8
  %87 = icmp ne ptr %86, null
  br i1 %87, label %88, label %91

88:                                               ; preds = %80
  %89 = load i64, ptr %3, align 8
  %90 = add i64 %89, 1
  store i64 %90, ptr %3, align 8
  br label %91

91:                                               ; preds = %88, %80
  br label %92

92:                                               ; preds = %91
  %93 = load i32, ptr %5, align 4
  %94 = add nsw i32 %93, 1
  store i32 %94, ptr %5, align 4
  br label %74, !llvm.loop !24

95:                                               ; preds = %74
  br label %96

96:                                               ; preds = %95
  %97 = load i32, ptr %4, align 4
  %98 = add nsw i32 %97, 1
  store i32 %98, ptr %4, align 4
  br label %60, !llvm.loop !25

99:                                               ; preds = %60
  %100 = load ptr, ptr %2, align 8
  %101 = getelementptr inbounds %struct.DdManager, ptr %100, i32 0, i32 21
  store ptr %101, ptr %8, align 8
  %102 = load ptr, ptr %8, align 8
  %103 = getelementptr inbounds %struct.DdSubtable, ptr %102, i32 0, i32 0
  %104 = load ptr, ptr %103, align 8
  store ptr %104, ptr %7, align 8
  store i32 0, ptr %5, align 4
  br label %105

105:                                              ; preds = %123, %99
  %106 = load i32, ptr %5, align 4
  %107 = load ptr, ptr %8, align 8
  %108 = getelementptr inbounds %struct.DdSubtable, ptr %107, i32 0, i32 2
  %109 = load i32, ptr %108, align 4
  %110 = icmp ult i32 %106, %109
  br i1 %110, label %111, label %126

111:                                              ; preds = %105
  %112 = load ptr, ptr %7, align 8
  %113 = load i32, ptr %5, align 4
  %114 = sext i32 %113 to i64
  %115 = getelementptr inbounds ptr, ptr %112, i64 %114
  %116 = load ptr, ptr %115, align 8
  store ptr %116, ptr %9, align 8
  %117 = load ptr, ptr %9, align 8
  %118 = icmp ne ptr %117, null
  br i1 %118, label %119, label %122

119:                                              ; preds = %111
  %120 = load i64, ptr %3, align 8
  %121 = add i64 %120, 1
  store i64 %121, ptr %3, align 8
  br label %122

122:                                              ; preds = %119, %111
  br label %123

123:                                              ; preds = %122
  %124 = load i32, ptr %5, align 4
  %125 = add nsw i32 %124, 1
  store i32 %125, ptr %5, align 4
  br label %105, !llvm.loop !26

126:                                              ; preds = %105
  %127 = load i64, ptr %3, align 8
  %128 = uitofp i64 %127 to double
  %129 = load ptr, ptr %2, align 8
  %130 = getelementptr inbounds %struct.DdManager, ptr %129, i32 0, i32 22
  %131 = load i32, ptr %130, align 8
  %132 = uitofp i32 %131 to double
  %133 = fdiv double %128, %132
  ret double %133
}