; Function Attrs: nofree norecurse nosync nounwind memory(read, inaccessiblemem: none) uwtable
define double @Cudd_ReadUsedSlots(ptr noundef readonly %0) local_unnamed_addr #9 {
  %2 = getelementptr inbounds nuw i8, ptr %0, i64 136
  %3 = load i32, ptr %2, align 8
  %4 = icmp sgt i32 %3, 0
  br i1 %4, label %.lr.ph54, label %._crit_edge55

.lr.ph54:                                         ; preds = %1
  %5 = getelementptr inbounds nuw i8, ptr %0, i64 152
  %6 = load ptr, ptr %5, align 8
  %wide.trip.count82 = zext nneg i32 %3 to i64
  br label %7

7:                                                ; preds = %.lr.ph54, %._crit_edge
  %indvars.iv79 = phi i64 [ 0, %.lr.ph54 ], [ %indvars.iv.next80, %._crit_edge ]
  %.052 = phi i64 [ 0, %.lr.ph54 ], [ %.1.lcssa, %._crit_edge ]
  %8 = getelementptr inbounds nuw %struct.DdSubtable, ptr %6, i64 %indvars.iv79
  %9 = load ptr, ptr %8, align 8
  %10 = getelementptr inbounds nuw i8, ptr %8, i64 12
  %11 = load i32, ptr %10, align 4
  %.not75 = icmp eq i32 %11, 0
  br i1 %.not75, label %._crit_edge, label %.lr.ph.preheader

.lr.ph.preheader:                                 ; preds = %7
  %wide.trip.count = zext i32 %11 to i64
  br label %.lr.ph

.lr.ph:                                           ; preds = %.lr.ph.preheader, %.lr.ph
  %indvars.iv = phi i64 [ 0, %.lr.ph.preheader ], [ %indvars.iv.next, %.lr.ph ]
  %.150 = phi i64 [ %.052, %.lr.ph.preheader ], [ %spec.select, %.lr.ph ]
  %12 = getelementptr inbounds nuw ptr, ptr %9, i64 %indvars.iv
  %13 = load ptr, ptr %12, align 8
  %.not46 = icmp ne ptr %13, %0
  %14 = zext i1 %.not46 to i64
  %spec.select = add i64 %.150, %14
  %indvars.iv.next = add nuw nsw i64 %indvars.iv, 1
  %exitcond.not = icmp eq i64 %indvars.iv.next, %wide.trip.count
  br i1 %exitcond.not, label %._crit_edge, label %.lr.ph, !llvm.loop !21

._crit_edge:                                      ; preds = %.lr.ph, %7
  %.1.lcssa = phi i64 [ %.052, %7 ], [ %spec.select, %.lr.ph ]
  %indvars.iv.next80 = add nuw nsw i64 %indvars.iv79, 1
  %exitcond83.not = icmp eq i64 %indvars.iv.next80, %wide.trip.count82
  br i1 %exitcond83.not, label %._crit_edge55, label %7, !llvm.loop !22

._crit_edge55:                                    ; preds = %._crit_edge, %1
  %.0.lcssa = phi i64 [ 0, %1 ], [ %.1.lcssa, %._crit_edge ]
  %15 = getelementptr inbounds nuw i8, ptr %0, i64 140
  %16 = load i32, ptr %15, align 4
  %17 = icmp sgt i32 %16, 0
  br i1 %17, label %.lr.ph66, label %._crit_edge67

.lr.ph66:                                         ; preds = %._crit_edge55
  %18 = getelementptr inbounds nuw i8, ptr %0, i64 160
  %19 = load ptr, ptr %18, align 8
  %wide.trip.count92 = zext nneg i32 %16 to i64
  br label %20

20:                                               ; preds = %.lr.ph66, %._crit_edge61
  %indvars.iv89 = phi i64 [ 0, %.lr.ph66 ], [ %indvars.iv.next90, %._crit_edge61 ]
  %.364 = phi i64 [ %.0.lcssa, %.lr.ph66 ], [ %.4.lcssa, %._crit_edge61 ]
  %21 = getelementptr inbounds nuw %struct.DdSubtable, ptr %19, i64 %indvars.iv89
  %22 = load ptr, ptr %21, align 8
  %23 = getelementptr inbounds nuw i8, ptr %21, i64 12
  %24 = load i32, ptr %23, align 4
  %.not76 = icmp eq i32 %24, 0
  br i1 %.not76, label %._crit_edge61, label %.lr.ph60.preheader

.lr.ph60.preheader:                               ; preds = %20
  %wide.trip.count87 = zext i32 %24 to i64
  br label %.lr.ph60

.lr.ph60:                                         ; preds = %.lr.ph60.preheader, %.lr.ph60
  %indvars.iv84 = phi i64 [ 0, %.lr.ph60.preheader ], [ %indvars.iv.next85, %.lr.ph60 ]
  %.458 = phi i64 [ %.364, %.lr.ph60.preheader ], [ %spec.select47, %.lr.ph60 ]
  %25 = getelementptr inbounds nuw ptr, ptr %22, i64 %indvars.iv84
  %26 = load ptr, ptr %25, align 8
  %.not45 = icmp ne ptr %26, null
  %27 = zext i1 %.not45 to i64
  %spec.select47 = add i64 %.458, %27
  %indvars.iv.next85 = add nuw nsw i64 %indvars.iv84, 1
  %exitcond88.not = icmp eq i64 %indvars.iv.next85, %wide.trip.count87
  br i1 %exitcond88.not, label %._crit_edge61, label %.lr.ph60, !llvm.loop !23

._crit_edge61:                                    ; preds = %.lr.ph60, %20
  %.4.lcssa = phi i64 [ %.364, %20 ], [ %spec.select47, %.lr.ph60 ]
  %indvars.iv.next90 = add nuw nsw i64 %indvars.iv89, 1
  %exitcond93.not = icmp eq i64 %indvars.iv.next90, %wide.trip.count92
  br i1 %exitcond93.not, label %._crit_edge67, label %20, !llvm.loop !24

._crit_edge67:                                    ; preds = %._crit_edge61, %._crit_edge55
  %.3.lcssa = phi i64 [ %.0.lcssa, %._crit_edge55 ], [ %.4.lcssa, %._crit_edge61 ]
  %28 = getelementptr inbounds nuw i8, ptr %0, i64 168
  %29 = load ptr, ptr %28, align 8
  %30 = getelementptr inbounds nuw i8, ptr %0, i64 180
  %31 = load i32, ptr %30, align 4
  %.not77 = icmp eq i32 %31, 0
  br i1 %.not77, label %._crit_edge73, label %.lr.ph72.preheader

.lr.ph72.preheader:                               ; preds = %._crit_edge67
  %wide.trip.count97 = zext i32 %31 to i64
  br label %.lr.ph72

.lr.ph72:                                         ; preds = %.lr.ph72.preheader, %.lr.ph72
  %indvars.iv94 = phi i64 [ 0, %.lr.ph72.preheader ], [ %indvars.iv.next95, %.lr.ph72 ]
  %.670 = phi i64 [ %.3.lcssa, %.lr.ph72.preheader ], [ %spec.select48, %.lr.ph72 ]
  %32 = getelementptr inbounds nuw ptr, ptr %29, i64 %indvars.iv94
  %33 = load ptr, ptr %32, align 8
  %.not = icmp ne ptr %33, null
  %34 = zext i1 %.not to i64
  %spec.select48 = add i64 %.670, %34
  %indvars.iv.next95 = add nuw nsw i64 %indvars.iv94, 1
  %exitcond98.not = icmp eq i64 %indvars.iv.next95, %wide.trip.count97
  br i1 %exitcond98.not, label %._crit_edge73, label %.lr.ph72, !llvm.loop !25

._crit_edge73:                                    ; preds = %.lr.ph72, %._crit_edge67
  %.6.lcssa = phi i64 [ %.3.lcssa, %._crit_edge67 ], [ %spec.select48, %.lr.ph72 ]
  %35 = uitofp i64 %.6.lcssa to double
  %36 = getelementptr inbounds nuw i8, ptr %0, i64 224
  %37 = load i32, ptr %36, align 8
  %38 = uitofp i32 %37 to double
  %39 = fdiv double %35, %38
  ret double %39
}